target datalayout = "e-m:e-p270:32:32-p271:32:32-p272:64:64-i64:64-i128:128-f80:128-n8:16:32:64-S128"
target triple = "x86_64-pc-linux-gnu"

%class.CellTypeState = type { i32 }
%class.methodHandle = type { ptr, ptr }
%class.RetTable = type { ptr }
%class.GenerateOopMap = type { ptr, %class.methodHandle, %class.RetTable, i32, i32, i32, i32, i8, %class.Handle, i8, i8, i8, i32, ptr, ptr, i32, i32, ptr, i32, i32, %class.ResourceBitMap, i8, i8, ptr, ptr, i8, i32, ptr, ptr }
%class.Handle = type { ptr }
%class.ResourceBitMap = type { %class.GrowableBitMap }
%class.GrowableBitMap = type { %class.BitMap }
%class.BitMap = type { ptr, i64 }

@_ZL6valCTS = internal global %class.CellTypeState zeroinitializer, align 4
@.str.32 = private unnamed_addr constant [16 x i8] c"stack underflow\00", align 1
@.str.64 = private unnamed_addr constant [45 x i8] c"wrong type on stack (found: %c expected: %c)\00", align 1
@.str.78 = private unnamed_addr constant [62 x i8] c"Illegal class file encountered. Try running with -Xverify:all\00", align 1

; Function Attrs: mustprogress nounwind uwtable
define linkonce_odr hidden noundef zeroext i1 @_ZNK13CellTypeState13can_be_uninitEv(ptr noundef nonnull align 4 dereferenceable(4) %0) #1 comdat align 2 {
  %2 = alloca ptr, align 8
  store ptr %0, ptr %2, align 8
  %3 = load ptr, ptr %2, align 8
  %4 = getelementptr inbounds %class.CellTypeState, ptr %3, i32 0, i32 0
  %5 = load i32, ptr %4, align 4
  %6 = and i32 %5, -2147483648
  %7 = icmp ne i32 %6, 0
  ret i1 %7
}

; Function Attrs: mustprogress nounwind uwtable
define linkonce_odr hidden noundef zeroext i1 @_ZNK13CellTypeState14can_be_addressEv(ptr noundef nonnull align 4 dereferenceable(4) %0) #1 comdat align 2 {
  %2 = alloca ptr, align 8
  store ptr %0, ptr %2, align 8
  %3 = load ptr, ptr %2, align 8
  %4 = getelementptr inbounds %class.CellTypeState, ptr %3, i32 0, i32 0
  %5 = load i32, ptr %4, align 4
  %6 = and i32 %5, 268435456
  %7 = icmp ne i32 %6, 0
  ret i1 %7
}

; Function Attrs: mustprogress nounwind uwtable
define linkonce_odr hidden noundef zeroext i1 @_ZNK13CellTypeState12can_be_valueEv(ptr noundef nonnull align 4 dereferenceable(4) %0) #1 comdat align 2 {
  %2 = alloca ptr, align 8
  store ptr %0, ptr %2, align 8
  %3 = load ptr, ptr %2, align 8
  %4 = getelementptr inbounds %class.CellTypeState, ptr %3, i32 0, i32 0
  %5 = load i32, ptr %4, align 4
  %6 = and i32 %5, 536870912
  %7 = icmp ne i32 %6, 0
  ret i1 %7
}

; Function Attrs: mustprogress nounwind uwtable
define linkonce_odr hidden noundef zeroext i1 @_ZNK13CellTypeState16can_be_referenceEv(ptr noundef nonnull align 4 dereferenceable(4) %0) #1 comdat align 2 {
  %2 = alloca ptr, align 8
  store ptr %0, ptr %2, align 8
  %3 = load ptr, ptr %2, align 8
  %4 = getelementptr inbounds %class.CellTypeState, ptr %3, i32 0, i32 0
  %5 = load i32, ptr %4, align 4
  %6 = and i32 %5, 1073741824
  %7 = icmp ne i32 %6, 0
  ret i1 %7
}

; Function Attrs: mustprogress nounwind uwtable
define hidden noundef signext i8 @_ZNK13CellTypeState7to_charEv(ptr noundef nonnull align 4 dereferenceable(4) %0) #1 align 2 {
  %2 = alloca i8, align 1
  %3 = alloca ptr, align 8
  store ptr %0, ptr %3, align 8
  %4 = load ptr, ptr %3, align 8
  %5 = call noundef zeroext i1 @_ZNK13CellTypeState16can_be_referenceEv(ptr noundef nonnull align 4 dereferenceable(4) %4)
  br i1 %5, label %6, label %12

6:                                                ; preds = %1
  %7 = call noundef zeroext i1 @_ZNK13CellTypeState12can_be_valueEv(ptr noundef nonnull align 4 dereferenceable(4) %4)
  br i1 %7, label %10, label %8

8:                                                ; preds = %6
  %9 = call noundef zeroext i1 @_ZNK13CellTypeState14can_be_addressEv(ptr noundef nonnull align 4 dereferenceable(4) %4)
  br i1 %9, label %10, label %11

10:                                               ; preds = %8, %6
  store i8 35, ptr %2, align 1
  br label %22

11:                                               ; preds = %8
  store i8 114, ptr %2, align 1
  br label %22

12:                                               ; preds = %1
  %13 = call noundef zeroext i1 @_ZNK13CellTypeState12can_be_valueEv(ptr noundef nonnull align 4 dereferenceable(4) %4)
  br i1 %13, label %14, label %15

14:                                               ; preds = %12
  store i8 118, ptr %2, align 1
  br label %22

15:                                               ; preds = %12
  %16 = call noundef zeroext i1 @_ZNK13CellTypeState14can_be_addressEv(ptr noundef nonnull align 4 dereferenceable(4) %4)
  br i1 %16, label %17, label %18

17:                                               ; preds = %15
  store i8 112, ptr %2, align 1
  br label %22

18:                                               ; preds = %15
  %19 = call noundef zeroext i1 @_ZNK13CellTypeState13can_be_uninitEv(ptr noundef nonnull align 4 dereferenceable(4) %4)
  br i1 %19, label %20, label %21

20:                                               ; preds = %18
  store i8 32, ptr %2, align 1
  br label %22

21:                                               ; preds = %18
  store i8 64, ptr %2, align 1
  br label %22

22:                                               ; preds = %21, %20, %17, %14, %11, %10
  %23 = load i8, ptr %2, align 1
  ret i8 %23
}

; Function Attrs: mustprogress nounwind uwtable
define linkonce_odr hidden noundef zeroext i1 @_ZNK13CellTypeState10equal_kindES_(ptr noundef nonnull align 4 dereferenceable(4) %0, i32 %1) #1 comdat align 2 {
  %3 = alloca %class.CellTypeState, align 4
  %4 = alloca ptr, align 8
  %5 = getelementptr inbounds %class.CellTypeState, ptr %3, i32 0, i32 0
  store i32 %1, ptr %5, align 4
  store ptr %0, ptr %4, align 8
  %6 = load ptr, ptr %4, align 8
  %7 = getelementptr inbounds %class.CellTypeState, ptr %6, i32 0, i32 0
  %8 = load i32, ptr %7, align 4
  %9 = and i32 %8, -268435456
  %10 = getelementptr inbounds %class.CellTypeState, ptr %3, i32 0, i32 0
  %11 = load i32, ptr %10, align 4
  %12 = and i32 %11, -268435456
  %13 = icmp eq i32 %9, %12
  ret i1 %13
}

; Function Attrs: mustprogress nounwind uwtable
define linkonce_odr hidden noundef ptr @_ZN14GenerateOopMap5stackEv(ptr noundef nonnull align 8 dereferenceable(176) %0) #1 comdat align 2 {
  %2 = alloca ptr, align 8
  store ptr %0, ptr %2, align 8
  %3 = load ptr, ptr %2, align 8
  %4 = getelementptr inbounds %class.GenerateOopMap, ptr %3, i32 0, i32 13
  %5 = load ptr, ptr %4, align 8
  %6 = getelementptr inbounds %class.GenerateOopMap, ptr %3, i32 0, i32 3
  %7 = load i32, ptr %6, align 8
  %8 = sext i32 %7 to i64
  %9 = getelementptr inbounds %class.CellTypeState, ptr %5, i64 %8
  ret ptr %9
}

; Function Attrs: mustprogress nounwind uwtable
define hidden void @_ZN14GenerateOopMap12verify_errorEPKcz(ptr noundef nonnull align 8 dereferenceable(176) %0, ptr noundef %1, ...) #1 align 2 {
  %3 = alloca ptr, align 8
  %4 = alloca ptr, align 8
  store ptr %0, ptr %3, align 8
  store ptr %1, ptr %4, align 8
  %5 = load ptr, ptr %3, align 8
  call void (ptr, ptr, ...) @_ZN14GenerateOopMap12report_errorEPKcz(ptr noundef nonnull align 8 dereferenceable(176) %5, ptr noundef @.str.78)
  ret void
}

; Function Attrs: mustprogress nounwind uwtable
define hidden void @_ZN14GenerateOopMap10check_typeE13CellTypeStateS0_(ptr noundef nonnull align 8 dereferenceable(176) %0, i32 %1, i32 %2) #1 align 2 {
  %4 = alloca %class.CellTypeState, align 4
  %5 = alloca %class.CellTypeState, align 4
  %6 = alloca ptr, align 8
  %7 = alloca %class.CellTypeState, align 4
  %8 = getelementptr inbounds %class.CellTypeState, ptr %4, i32 0, i32 0
  store i32 %1, ptr %8, align 4
  %9 = getelementptr inbounds %class.CellTypeState, ptr %5, i32 0, i32 0
  store i32 %2, ptr %9, align 4
  store ptr %0, ptr %6, align 8
  %10 = load ptr, ptr %6, align 8
  call void @llvm.memcpy.p0.p0.i64(ptr align 4 %7, ptr align 4 %5, i64 4, i1 false)
  %11 = getelementptr inbounds %class.CellTypeState, ptr %7, i32 0, i32 0
  %12 = load i32, ptr %11, align 4
  %13 = call noundef zeroext i1 @_ZNK13CellTypeState10equal_kindES_(ptr noundef nonnull align 4 dereferenceable(4) %4, i32 %12)
  br i1 %13, label %19, label %14

14:                                               ; preds = %3
  %15 = call noundef signext i8 @_ZNK13CellTypeState7to_charEv(ptr noundef nonnull align 4 dereferenceable(4) %5)
  %16 = sext i8 %15 to i32
  %17 = call noundef signext i8 @_ZNK13CellTypeState7to_charEv(ptr noundef nonnull align 4 dereferenceable(4) %4)
  %18 = sext i8 %17 to i32
  call void (ptr, ptr, ...) @_ZN14GenerateOopMap12verify_errorEPKcz(ptr noundef nonnull align 8 dereferenceable(176) %10, ptr noundef @.str.64, i32 noundef %16, i32 noundef %18)
  br label %19

19:                                               ; preds = %14, %3
  ret void
}

; Function Attrs: mustprogress nounwind uwtable
define hidden i32 @_ZN14GenerateOopMap3popEv(ptr noundef nonnull align 8 dereferenceable(176) %0) #1 align 2 {
  %2 = alloca %class.CellTypeState, align 4
  %3 = alloca ptr, align 8
  store ptr %0, ptr %3, align 8
  %4 = load ptr, ptr %3, align 8
  %5 = getelementptr inbounds %class.GenerateOopMap, ptr %4, i32 0, i32 15
  %6 = load i32, ptr %5, align 8
  %7 = icmp sle i32 %6, 0
  br i1 %7, label %8, label %9

8:                                                ; preds = %1
  call void (ptr, ptr, ...) @_ZN14GenerateOopMap12verify_errorEPKcz(ptr noundef nonnull align 8 dereferenceable(176) %4, ptr noundef @.str.32)
  call void @llvm.memcpy.p0.p0.i64(ptr align 4 %2, ptr align 4 @_ZL6valCTS, i64 4, i1 false)
  br label %16

9:                                                ; preds = %1
  %10 = call noundef ptr @_ZN14GenerateOopMap5stackEv(ptr noundef nonnull align 8 dereferenceable(176) %4)
  %11 = getelementptr inbounds %class.GenerateOopMap, ptr %4, i32 0, i32 15
  %12 = load i32, ptr %11, align 8
  %13 = add nsw i32 %12, -1
  store i32 %13, ptr %11, align 8
  %14 = sext i32 %13 to i64
  %15 = getelementptr inbounds %class.CellTypeState, ptr %10, i64 %14
  call void @llvm.memcpy.p0.p0.i64(ptr align 4 %2, ptr align 4 %15, i64 4, i1 false)
  br label %16

16:                                               ; preds = %9, %8
  %17 = getelementptr inbounds %class.CellTypeState, ptr %2, i32 0, i32 0
  %18 = load i32, ptr %17, align 4
  ret i32 %18
}

; Function Attrs: mustprogress nounwind uwtable
define hidden void @_ZN14GenerateOopMap5ppop1E13CellTypeState(ptr noundef nonnull align 8 dereferenceable(176) %0, i32 %1) #1 align 2 {
  %3 = alloca %class.CellTypeState, align 4
  %4 = alloca ptr, align 8
  %5 = alloca %class.CellTypeState, align 4
  %6 = alloca %class.CellTypeState, align 4
  %7 = alloca %class.CellTypeState, align 4
  %8 = getelementptr inbounds %class.CellTypeState, ptr %3, i32 0, i32 0
  store i32 %1, ptr %8, align 4
  store ptr %0, ptr %4, align 8
  %9 = load ptr, ptr %4, align 8
  %10 = call i32 @_ZN14GenerateOopMap3popEv(ptr noundef nonnull align 8 dereferenceable(176) %9)
  %11 = getelementptr inbounds %class.CellTypeState, ptr %5, i32 0, i32 0
  store i32 %10, ptr %11, align 4
  call void @llvm.memcpy.p0.p0.i64(ptr align 4 %6, ptr align 4 %3, i64 4, i1 false)
  call void @llvm.memcpy.p0.p0.i64(ptr align 4 %7, ptr align 4 %5, i64 4, i1 false)
  %12 = getelementptr inbounds %class.CellTypeState, ptr %6, i32 0, i32 0
  %13 = load i32, ptr %12, align 4
  %14 = getelementptr inbounds %class.CellTypeState, ptr %7, i32 0, i32 0
  %15 = load i32, ptr %14, align 4
  call void @_ZN14GenerateOopMap10check_typeE13CellTypeStateS0_(ptr noundef nonnull align 8 dereferenceable(176) %9, i32 %13, i32 %15)
  ret void
}