; Function Attrs: mustprogress nounwind uwtable
define hidden void @_ZN14GenerateOopMap5ppop1E13CellTypeState(ptr nocapture noundef nonnull align 8 dereferenceable(176) %0, i32 %1) local_unnamed_addr #0 align 2 {
  %3 = getelementptr inbounds i8, ptr %0, i64 88
  %4 = load i32, ptr %3, align 8
  %5 = icmp slt i32 %4, 1
  br i1 %5, label %6, label %7

6:                                                ; preds = %2
  tail call void (ptr, ptr, ...) @_ZN14GenerateOopMap12report_errorEPKcz(ptr noundef nonnull align 8 dereferenceable(176) %0, ptr noundef nonnull @.str.78)
  br label %_ZN14GenerateOopMap3popEv.exit

7:                                                ; preds = %2
  %8 = getelementptr inbounds i8, ptr %0, i64 72
  %9 = load ptr, ptr %8, align 8
  %10 = getelementptr inbounds i8, ptr %0, i64 32
  %11 = load i32, ptr %10, align 8
  %12 = sext i32 %11 to i64
  %13 = getelementptr inbounds %class.CellTypeState, ptr %9, i64 %12
  %14 = add nsw i32 %4, -1
  store i32 %14, ptr %3, align 8
  %15 = zext nneg i32 %14 to i64
  %16 = getelementptr inbounds %class.CellTypeState, ptr %13, i64 %15
  br label %_ZN14GenerateOopMap3popEv.exit

_ZN14GenerateOopMap3popEv.exit:                   ; preds = %6, %7
  %.sroa.0.0.in.i = phi ptr [ @_ZL6valCTS, %6 ], [ %16, %7 ]
  %.sroa.0.0.i = load i32, ptr %.sroa.0.0.in.i, align 4
  %17 = xor i32 %.sroa.0.0.i, %1
  %18 = icmp ult i32 %17, 268435456
  br i1 %18, label %_ZN14GenerateOopMap10check_typeE13CellTypeStateS0_.exit, label %_ZNK13CellTypeState7to_charEv.exit.i

_ZNK13CellTypeState7to_charEv.exit.i:             ; preds = %_ZN14GenerateOopMap3popEv.exit
  tail call void (ptr, ptr, ...) @_ZN14GenerateOopMap12report_errorEPKcz(ptr noundef nonnull align 8 dereferenceable(176) %0, ptr noundef nonnull @.str.78)
  br label %_ZN14GenerateOopMap10check_typeE13CellTypeStateS0_.exit

_ZN14GenerateOopMap10check_typeE13CellTypeStateS0_.exit: ; preds = %_ZN14GenerateOopMap3popEv.exit, %_ZNK13CellTypeState7to_charEv.exit.i
  ret void
}